target datalayout = "e-m:e-p270:32:32-p271:32:32-p272:64:64-i64:64-i128:128-f80:128-n8:16:32:64-S128"
target triple = "x86_64-pc-linux-gnu"

@catapult_dct2000_handle = internal global ptr null, align 8
@proto_register_catapult_dct2000.ett = internal global [5 x ptr] [ptr @ett_catapult_dct2000, ptr @ett_catapult_dct2000_ipprim, ptr @ett_catapult_dct2000_sctpprim, ptr @ett_catapult_dct2000_tty, ptr @ett_catapult_dct2000_security_mode_params], align 16
@.str.197 = private unnamed_addr constant [24 x i8] c"Catapult DCT2000 packet\00", align 1
@.str.198 = private unnamed_addr constant [8 x i8] c"DCT2000\00", align 1
@.str.199 = private unnamed_addr constant [8 x i8] c"dct2000\00", align 1
@proto_catapult_dct2000 = internal global i32 0, align 4
@.str.200 = private unnamed_addr constant [17 x i8] c"board_ports_only\00", align 1
@.str.201 = private unnamed_addr constant [16 x i8] c"decode_lte_s1ap\00", align 1
@.str.202 = private unnamed_addr constant [17 x i8] c"ipprim_heuristic\00", align 1
@.str.203 = private unnamed_addr constant [27 x i8] c"Use IP Primitive heuristic\00", align 1
@.str.204 = private unnamed_addr constant [182 x i8] c"If a payload looks like it's embedded in an IP primitive message, and there is a Wireshark dissector matching the DCT2000 protocol name, try parsing the payload using that dissector\00", align 1
@catapult_dct2000_try_ipprim_heuristic = internal global i8 1, align 1
@.str.205 = private unnamed_addr constant [19 x i8] c"sctpprim_heuristic\00", align 1
@.str.206 = private unnamed_addr constant [29 x i8] c"Use SCTP Primitive heuristic\00", align 1
@.str.207 = private unnamed_addr constant [184 x i8] c"If a payload looks like it's embedded in an SCTP primitive message, and there is a Wireshark dissector matching the DCT2000 protocol name, try parsing the payload using that dissector\00", align 1
@catapult_dct2000_try_sctpprim_heuristic = internal global i8 1, align 1
@.str.208 = private unnamed_addr constant [15 x i8] c"decode_lte_rrc\00", align 1
@.str.209 = private unnamed_addr constant [33 x i8] c"Attempt to decode LTE RRC frames\00", align 1
@.str.210 = private unnamed_addr constant [125 x i8] c"When set, attempt to decode LTE RRC frames. Note that this won't affect other protocols that also call the LTE RRC dissector\00", align 1
@catapult_dct2000_dissect_lte_rrc = internal global i8 1, align 1
@.str.211 = private unnamed_addr constant [28 x i8] c"decode_mac_lte_oob_messages\00", align 1
@.str.212 = private unnamed_addr constant [57 x i8] c"Look for out-of-band LTE MAC events messages in comments\00", align 1
@.str.213 = private unnamed_addr constant [146 x i8] c"When set, look for formatted messages indicating specific events.  This may be quite slow, so should be disabled if LTE MAC is not being analysed\00", align 1
@catapult_dct2000_dissect_mac_lte_oob_messages = internal global i8 1, align 1
@.str.214 = private unnamed_addr constant [27 x i8] c"convert_old_protocol_names\00", align 1
@.str.215 = private unnamed_addr constant [56 x i8] c"Convert old protocol names to wireshark dissector names\00", align 1
@.str.216 = private unnamed_addr constant [99 x i8] c"When set, look for some older protocol names so thatthey may be matched with wireshark dissectors.\00", align 1
@catapult_dct2000_dissect_old_protocol_names = internal global i8 0, align 1
@.str.217 = private unnamed_addr constant [36 x i8] c"use_protocol_name_as_dissector_name\00", align 1
@.str.218 = private unnamed_addr constant [67 x i8] c"Look for a dissector using the protocol name in the DCT2000 record\00", align 1
@.str.219 = private unnamed_addr constant [191 x i8] c"When set, if there is a Wireshark dissector matching the protocol name, it will parse the PDU using that dissector. This may be slow, so should be disabled unless you are using this feature.\00", align 1
@catapult_dct2000_use_protocol_name_as_dissector_name = internal global i8 0, align 1

; Function Attrs: null_pointer_is_valid sspstrong uwtable
define hidden void @proto_register_catapult_dct2000() #0 {
  %1 = alloca ptr, align 8
  %2 = alloca ptr, align 8
  call void @llvm.lifetime.start.p0(i64 8, ptr %1) #12
  call void @llvm.lifetime.start.p0(i64 8, ptr %2) #12
  %3 = call i32 @proto_register_protocol(ptr noundef @.str.197, ptr noundef @.str.198, ptr noundef @.str.199)
  store i32 %3, ptr @proto_catapult_dct2000, align 4
  %4 = load i32, ptr @proto_catapult_dct2000, align 4
  call void @proto_register_field_array(i32 noundef %4, ptr noundef @proto_register_catapult_dct2000.hf, i32 noundef 79)
  call void @proto_register_subtree_array(ptr noundef @proto_register_catapult_dct2000.ett, i32 noundef 5)
  %5 = load i32, ptr @proto_catapult_dct2000, align 4
  %6 = call ptr @expert_register_protocol(i32 noundef %5)
  store ptr %6, ptr %2, align 8
  %7 = load ptr, ptr %2, align 8
  call void @expert_register_field_array(ptr noundef %7, ptr noundef @proto_register_catapult_dct2000.ei, i32 noundef 3)
  %8 = load i32, ptr @proto_catapult_dct2000, align 4
  %9 = call ptr @register_dissector(ptr noundef @.str.199, ptr noundef @dissect_catapult_dct2000, i32 noundef %8)
  store ptr %9, ptr @catapult_dct2000_handle, align 8
  %10 = load i32, ptr @proto_catapult_dct2000, align 4
  %11 = call ptr @prefs_register_protocol(i32 noundef %10, ptr noundef null)
  store ptr %11, ptr %1, align 8
  %12 = load ptr, ptr %1, align 8
  call void @prefs_register_obsolete_preference(ptr noundef %12, ptr noundef @.str.200)
  %13 = load ptr, ptr %1, align 8
  call void @prefs_register_obsolete_preference(ptr noundef %13, ptr noundef @.str.201)
  %14 = load ptr, ptr %1, align 8
  call void @prefs_register_bool_preference(ptr noundef %14, ptr noundef @.str.202, ptr noundef @.str.203, ptr noundef @.str.204, ptr noundef @catapult_dct2000_try_ipprim_heuristic)
  %15 = load ptr, ptr %1, align 8
  call void @prefs_register_bool_preference(ptr noundef %15, ptr noundef @.str.205, ptr noundef @.str.206, ptr noundef @.str.207, ptr noundef @catapult_dct2000_try_sctpprim_heuristic)
  %16 = load ptr, ptr %1, align 8
  call void @prefs_register_bool_preference(ptr noundef %16, ptr noundef @.str.208, ptr noundef @.str.209, ptr noundef @.str.210, ptr noundef @catapult_dct2000_dissect_lte_rrc)
  %17 = load ptr, ptr %1, align 8
  call void @prefs_register_bool_preference(ptr noundef %17, ptr noundef @.str.211, ptr noundef @.str.212, ptr noundef @.str.213, ptr noundef @catapult_dct2000_dissect_mac_lte_oob_messages)
  %18 = load ptr, ptr %1, align 8
  call void @prefs_register_bool_preference(ptr noundef %18, ptr noundef @.str.214, ptr noundef @.str.215, ptr noundef @.str.216, ptr noundef @catapult_dct2000_dissect_old_protocol_names)
  %19 = load ptr, ptr %1, align 8
  call void @prefs_register_bool_preference(ptr noundef %19, ptr noundef @.str.217, ptr noundef @.str.218, ptr noundef @.str.219, ptr noundef @catapult_dct2000_use_protocol_name_as_dissector_name)
  call void @llvm.lifetime.end.p0(i64 8, ptr %2) #12
  call void @llvm.lifetime.end.p0(i64 8, ptr %1) #12
  ret void
}