; Function Attrs: null_pointer_is_valid sspstrong uwtable
define hidden void @proto_register_catapult_dct2000() local_unnamed_addr #0 {
  %1 = tail call i32 @proto_register_protocol(ptr noundef nonnull @.str.197, ptr noundef nonnull @.str.198, ptr noundef nonnull @.str.199)
  store i32 %1, ptr @proto_catapult_dct2000, align 4
  tail call void @proto_register_field_array(i32 noundef %1, ptr noundef nonnull @proto_register_catapult_dct2000.hf, i32 noundef 79)
  tail call void @proto_register_subtree_array(ptr noundef nonnull @proto_register_catapult_dct2000.ett, i32 noundef 5)
  %2 = load i32, ptr @proto_catapult_dct2000, align 4
  %3 = tail call ptr @expert_register_protocol(i32 noundef %2)
  tail call void @expert_register_field_array(ptr noundef %3, ptr noundef nonnull @proto_register_catapult_dct2000.ei, i32 noundef 3)
  %4 = load i32, ptr @proto_catapult_dct2000, align 4
  %5 = tail call ptr @register_dissector(ptr noundef nonnull @.str.199, ptr noundef nonnull @dissect_catapult_dct2000, i32 noundef %4)
  store ptr %5, ptr @catapult_dct2000_handle, align 8
  %6 = load i32, ptr @proto_catapult_dct2000, align 4
  %7 = tail call ptr @prefs_register_protocol(i32 noundef %6, ptr noundef null)
  tail call void @prefs_register_obsolete_preference(ptr noundef %7, ptr noundef nonnull @.str.200)
  tail call void @prefs_register_obsolete_preference(ptr noundef %7, ptr noundef nonnull @.str.201)
  tail call void @prefs_register_bool_preference(ptr noundef %7, ptr noundef nonnull @.str.202, ptr noundef nonnull @.str.203, ptr noundef nonnull @.str.204, ptr noundef nonnull @catapult_dct2000_try_ipprim_heuristic)
  tail call void @prefs_register_bool_preference(ptr noundef %7, ptr noundef nonnull @.str.205, ptr noundef nonnull @.str.206, ptr noundef nonnull @.str.207, ptr noundef nonnull @catapult_dct2000_try_sctpprim_heuristic)
  tail call void @prefs_register_bool_preference(ptr noundef %7, ptr noundef nonnull @.str.208, ptr noundef nonnull @.str.209, ptr noundef nonnull @.str.210, ptr noundef nonnull @catapult_dct2000_dissect_lte_rrc)
  tail call void @prefs_register_bool_preference(ptr noundef %7, ptr noundef nonnull @.str.211, ptr noundef nonnull @.str.212, ptr noundef nonnull @.str.213, ptr noundef nonnull @catapult_dct2000_dissect_mac_lte_oob_messages)
  tail call void @prefs_register_bool_preference(ptr noundef %7, ptr noundef nonnull @.str.214, ptr noundef nonnull @.str.215, ptr noundef nonnull @.str.216, ptr noundef nonnull @catapult_dct2000_dissect_old_protocol_names)
  tail call void @prefs_register_bool_preference(ptr noundef %7, ptr noundef nonnull @.str.217, ptr noundef nonnull @.str.218, ptr noundef nonnull @.str.219, ptr noundef nonnull @catapult_dct2000_use_protocol_name_as_dissector_name)
  ret void
}